target datalayout = "e-m:e-p270:32:32-p271:32:32-p272:64:64-i64:64-i128:128-f80:128-n8:16:32:64-S128"
target triple = "x86_64-unknown-linux-gnu"

%"struct.std::array" = type { [2 x i64] }
%"class.arrow::Decimal128" = type { %"class.arrow::BasicDecimal128" }
%"class.arrow::BasicDecimal128" = type { %"class.arrow::GenericBasicDecimal" }
%"class.arrow::GenericBasicDecimal" = type { %"struct.std::array" }

; Function Attrs: mustprogress nounwind uwtable
define linkonce_odr noundef ptr @_ZN5arrow10RealTraitsIdE13powers_of_tenEv() #2 comdat align 2 {
entry:
  ret ptr @_ZN5arrowL18kDoublePowersOfTenE
}

; Function Attrs: mustprogress nounwind uwtable
define linkonce_odr noundef nonnull align 8 dereferenceable(8) ptr @_ZNSt14__array_traitsImLm2EE6_S_refERA2_Kmm(ptr noundef nonnull align 8 dereferenceable(16) %__t, i64 noundef %__n) #2 comdat align 2 {
entry:
  %__t.addr = alloca ptr, align 8
  %__n.addr = alloca i64, align 8
  store ptr %__t, ptr %__t.addr, align 8
  store i64 %__n, ptr %__n.addr, align 8
  %0 = load ptr, ptr %__t.addr, align 8
  %1 = load i64, ptr %__n.addr, align 8
  %arrayidx = getelementptr inbounds [2 x i64], ptr %0, i64 0, i64 %1
  ret ptr %arrayidx
}

; Function Attrs: mustprogress nounwind uwtable
define linkonce_odr void @_ZN5arrow19GenericBasicDecimalINS_15BasicDecimal128ELi128ELi2EEC2Ev(ptr noundef nonnull align 8 dereferenceable(16) %this) unnamed_addr #2 comdat align 2 {
entry:
  %this.addr = alloca ptr, align 8
  store ptr %this, ptr %this.addr, align 8
  %this1 = load ptr, ptr %this.addr, align 8
  %array_ = getelementptr inbounds %"class.arrow::GenericBasicDecimal", ptr %this1, i32 0, i32 0
  %_M_elems = getelementptr inbounds %"struct.std::array", ptr %array_, i32 0, i32 0
  %arrayinit.begin = getelementptr inbounds [2 x i64], ptr %_M_elems, i64 0, i64 0
  store i64 0, ptr %arrayinit.begin, align 8
  %arrayinit.start = getelementptr inbounds i64, ptr %arrayinit.begin, i64 1
  %arrayinit.end = getelementptr inbounds i64, ptr %arrayinit.begin, i64 2
  br label %arrayinit.body

arrayinit.body:                                   ; preds = %arrayinit.body, %entry
  %arrayinit.cur = phi ptr [ %arrayinit.start, %entry ], [ %arrayinit.next, %arrayinit.body ]
  store i64 0, ptr %arrayinit.cur, align 8
  %arrayinit.next = getelementptr inbounds i64, ptr %arrayinit.cur, i64 1
  %arrayinit.done = icmp eq ptr %arrayinit.next, %arrayinit.end
  br i1 %arrayinit.done, label %arrayinit.end2, label %arrayinit.body

arrayinit.end2:                                   ; preds = %arrayinit.body
  ret void
}

; Function Attrs: mustprogress nounwind uwtable
define internal noundef double @_ZN5arrow12_GLOBAL__N_125BaseDecimalRealConversion15LargePowerOfTenIdEET_i(i32 noundef %exp) #2 align 2 {
entry:
  %retval = alloca double, align 8
  %exp.addr = alloca i32, align 4
  %N = alloca i32, align 4
  store i32 %exp, ptr %exp.addr, align 4
  store i32 76, ptr %N, align 4
  %0 = load i32, ptr %exp.addr, align 4
  %cmp = icmp sge i32 %0, -76
  br i1 %cmp, label %land.rhs, label %land.end

land.rhs:                                         ; preds = %entry
  %1 = load i32, ptr %exp.addr, align 4
  %cmp1 = icmp sle i32 %1, 76
  br label %land.end

land.end:                                         ; preds = %land.rhs, %entry
  %2 = phi i1 [ false, %entry ], [ %cmp1, %land.rhs ]
  %lnot = xor i1 %2, true
  %lnot2 = xor i1 %lnot, true
  br i1 %lnot2, label %if.then, label %if.else

if.then:                                          ; preds = %land.end
  %call = call noundef ptr @_ZN5arrow10RealTraitsIdE13powers_of_tenEv()
  %3 = load i32, ptr %exp.addr, align 4
  %add = add nsw i32 %3, 76
  %idxprom = sext i32 %add to i64
  %arrayidx = getelementptr inbounds double, ptr %call, i64 %idxprom
  %4 = load double, ptr %arrayidx, align 8
  store double %4, ptr %retval, align 8
  br label %return

if.else:                                          ; preds = %land.end
  %5 = load i32, ptr %exp.addr, align 4
  %conv = sitofp i32 %5 to double
  %call3 = call double @pow(double noundef 1.000000e+01, double noundef %conv) #12
  store double %call3, ptr %retval, align 8
  br label %return

return:                                           ; preds = %if.else, %if.then
  %6 = load double, ptr %retval, align 8
  ret double %6
}

; Function Attrs: mustprogress nounwind uwtable
define linkonce_odr noundef double @_ZN5arrow10RealTraitsIdE9two_to_64Ed(double noundef %x) #2 comdat align 2 {
entry:
  %x.addr = alloca double, align 8
  store double %x, ptr %x.addr, align 8
  %0 = load double, ptr %x.addr, align 8
  %mul = fmul double %0, 0x43F0000000000000
  ret double %mul
}

; Function Attrs: mustprogress nounwind uwtable
define linkonce_odr noundef nonnull align 8 dereferenceable(8) ptr @_ZNKSt5arrayImLm2EEixEm(ptr noundef nonnull align 8 dereferenceable(16) %this, i64 noundef %__n) #2 comdat align 2 {
entry:
  %this.addr = alloca ptr, align 8
  %__n.addr = alloca i64, align 8
  store ptr %this, ptr %this.addr, align 8
  store i64 %__n, ptr %__n.addr, align 8
  %this1 = load ptr, ptr %this.addr, align 8
  %_M_elems = getelementptr inbounds %"struct.std::array", ptr %this1, i32 0, i32 0
  %0 = load i64, ptr %__n.addr, align 8
  %call = call noundef nonnull align 8 dereferenceable(8) ptr @_ZNSt14__array_traitsImLm2EE6_S_refERA2_Kmm(ptr noundef nonnull align 8 dereferenceable(16) %_M_elems, i64 noundef %0) #12
  ret ptr %call
}

; Function Attrs: mustprogress nounwind uwtable
define linkonce_odr void @_ZN5arrow10Decimal128C2ERKNS_15BasicDecimal128E(ptr noundef nonnull align 8 dereferenceable(16) %this, ptr noundef nonnull align 8 dereferenceable(16) %value) unnamed_addr #2 comdat align 2 {
entry:
  %this.addr = alloca ptr, align 8
  %value.addr = alloca ptr, align 8
  store ptr %this, ptr %this.addr, align 8
  store ptr %value, ptr %value.addr, align 8
  %this1 = load ptr, ptr %this.addr, align 8
  %0 = load ptr, ptr %value.addr, align 8
  call void @llvm.memcpy.p0.p0.i64(ptr align 8 %this1, ptr align 8 %0, i64 16, i1 false)
  ret void
}

; Function Attrs: mustprogress nounwind uwtable
define linkonce_odr void @_ZN5arrow15BasicDecimal128C2Ev(ptr noundef nonnull align 8 dereferenceable(16) %this) unnamed_addr #2 comdat align 2 {
entry:
  %this.addr = alloca ptr, align 8
  store ptr %this, ptr %this.addr, align 8
  %this1 = load ptr, ptr %this.addr, align 8
  call void @_ZN5arrow19GenericBasicDecimalINS_15BasicDecimal128ELi128ELi2EEC2Ev(ptr noundef nonnull align 8 dereferenceable(16) %this1) #12
  ret void
}

; Function Attrs: mustprogress uwtable
define internal noundef double @_ZN5arrow12_GLOBAL__N_124Decimal128RealConversion21ToRealPositiveNoSplitIdEET_RKNS_10Decimal128Ei(ptr noundef nonnull align 8 dereferenceable(16) %decimal, i32 noundef %scale) #0 align 2 {
entry:
  %decimal.addr = alloca ptr, align 8
  %scale.addr = alloca i32, align 4
  %x = alloca double, align 8
  store ptr %decimal, ptr %decimal.addr, align 8
  store i32 %scale, ptr %scale.addr, align 4
  %0 = load ptr, ptr %decimal.addr, align 8
  %call = call noundef i64 @_ZNK5arrow15BasicDecimal1289high_bitsEv(ptr noundef nonnull align 8 dereferenceable(16) %0)
  %conv = sitofp i64 %call to double
  %call1 = call noundef double @_ZN5arrow10RealTraitsIdE9two_to_64Ed(double noundef %conv)
  store double %call1, ptr %x, align 8
  %1 = load ptr, ptr %decimal.addr, align 8
  %call2 = call noundef i64 @_ZNK5arrow15BasicDecimal1288low_bitsEv(ptr noundef nonnull align 8 dereferenceable(16) %1)
  %conv3 = uitofp i64 %call2 to double
  %2 = load double, ptr %x, align 8
  %add = fadd double %2, %conv3
  store double %add, ptr %x, align 8
  %3 = load i32, ptr %scale.addr, align 4
  %sub = sub nsw i32 0, %3
  %call4 = call noundef double @_ZN5arrow12_GLOBAL__N_125BaseDecimalRealConversion15LargePowerOfTenIdEET_i(i32 noundef %sub)
  %4 = load double, ptr %x, align 8
  %mul = fmul double %4, %call4
  store double %mul, ptr %x, align 8
  %5 = load double, ptr %x, align 8
  ret double %5
}

; Function Attrs: mustprogress nounwind uwtable
define linkonce_odr noundef i64 @_ZNK5arrow15BasicDecimal1288low_bitsEv(ptr noundef nonnull align 8 dereferenceable(16) %this) #2 comdat align 2 {
entry:
  %this.addr = alloca ptr, align 8
  store ptr %this, ptr %this.addr, align 8
  %this1 = load ptr, ptr %this.addr, align 8
  %array_ = getelementptr inbounds %"class.arrow::GenericBasicDecimal", ptr %this1, i32 0, i32 0
  %call = call noundef nonnull align 8 dereferenceable(8) ptr @_ZNKSt5arrayImLm2EEixEm(ptr noundef nonnull align 8 dereferenceable(16) %array_, i64 noundef 0) #12
  %0 = load i64, ptr %call, align 8
  ret i64 %0
}

; Function Attrs: mustprogress nounwind uwtable
define linkonce_odr noundef i64 @_ZNK5arrow15BasicDecimal1289high_bitsEv(ptr noundef nonnull align 8 dereferenceable(16) %this) #2 comdat align 2 {
entry:
  %this.addr = alloca ptr, align 8
  store ptr %this, ptr %this.addr, align 8
  %this1 = load ptr, ptr %this.addr, align 8
  %array_ = getelementptr inbounds %"class.arrow::GenericBasicDecimal", ptr %this1, i32 0, i32 0
  %call = call noundef nonnull align 8 dereferenceable(8) ptr @_ZNKSt5arrayImLm2EEixEm(ptr noundef nonnull align 8 dereferenceable(16) %array_, i64 noundef 1) #12
  %0 = load i64, ptr %call, align 8
  ret i64 %0
}

; Function Attrs: mustprogress uwtable
define internal noundef double @_ZN5arrow12_GLOBAL__N_124Decimal128RealConversion14ToRealPositiveIdEET_RKNS_10Decimal128Ei(ptr noundef nonnull align 8 dereferenceable(16) %decimal, i32 noundef %scale) #0 align 2 {
entry:
  %retval = alloca double, align 8
  %decimal.addr = alloca ptr, align 8
  %scale.addr = alloca i32, align 4
  %whole_decimal = alloca %"class.arrow::BasicDecimal128", align 8
  %fraction_decimal = alloca %"class.arrow::BasicDecimal128", align 8
  %whole = alloca double, align 8
  %ref.tmp = alloca %"class.arrow::Decimal128", align 8
  %fraction = alloca double, align 8
  %ref.tmp6 = alloca %"class.arrow::Decimal128", align 8
  store ptr %decimal, ptr %decimal.addr, align 8
  store i32 %scale, ptr %scale.addr, align 4
  %0 = load i32, ptr %scale.addr, align 4
  %cmp = icmp sle i32 %0, 0
  br i1 %cmp, label %if.then, label %lor.lhs.false

lor.lhs.false:                                    ; preds = %entry
  %1 = load ptr, ptr %decimal.addr, align 8
  %call = call noundef i64 @_ZNK5arrow15BasicDecimal1289high_bitsEv(ptr noundef nonnull align 8 dereferenceable(16) %1)
  %cmp1 = icmp eq i64 %call, 0
  br i1 %cmp1, label %land.lhs.true, label %if.end

land.lhs.true:                                    ; preds = %lor.lhs.false
  %2 = load ptr, ptr %decimal.addr, align 8
  %call2 = call noundef i64 @_ZNK5arrow15BasicDecimal1288low_bitsEv(ptr noundef nonnull align 8 dereferenceable(16) %2)
  %cmp3 = icmp ule i64 %call2, 9007199254740991
  br i1 %cmp3, label %if.then, label %if.end

if.then:                                          ; preds = %land.lhs.true, %entry
  %3 = load ptr, ptr %decimal.addr, align 8
  %4 = load i32, ptr %scale.addr, align 4
  %call4 = call noundef double @_ZN5arrow12_GLOBAL__N_124Decimal128RealConversion21ToRealPositiveNoSplitIdEET_RKNS_10Decimal128Ei(ptr noundef nonnull align 8 dereferenceable(16) %3, i32 noundef %4)
  store double %call4, ptr %retval, align 8
  br label %return

if.end:                                           ; preds = %land.lhs.true, %lor.lhs.false
  call void @_ZN5arrow15BasicDecimal128C2Ev(ptr noundef nonnull align 8 dereferenceable(16) %whole_decimal) #12
  call void @_ZN5arrow15BasicDecimal128C2Ev(ptr noundef nonnull align 8 dereferenceable(16) %fraction_decimal) #12
  %5 = load ptr, ptr %decimal.addr, align 8
  %6 = load i32, ptr %scale.addr, align 4
  call void @_ZNK5arrow15BasicDecimal12819GetWholeAndFractionEiPS0_S1_(ptr noundef nonnull align 8 dereferenceable(16) %5, i32 noundef %6, ptr noundef %whole_decimal, ptr noundef %fraction_decimal)
  call void @_ZN5arrow10Decimal128C2ERKNS_15BasicDecimal128E(ptr noundef nonnull align 8 dereferenceable(16) %ref.tmp, ptr noundef nonnull align 8 dereferenceable(16) %whole_decimal) #12
  %call5 = call noundef double @_ZN5arrow12_GLOBAL__N_124Decimal128RealConversion21ToRealPositiveNoSplitIdEET_RKNS_10Decimal128Ei(ptr noundef nonnull align 8 dereferenceable(16) %ref.tmp, i32 noundef 0)
  store double %call5, ptr %whole, align 8
  call void @_ZN5arrow10Decimal128C2ERKNS_15BasicDecimal128E(ptr noundef nonnull align 8 dereferenceable(16) %ref.tmp6, ptr noundef nonnull align 8 dereferenceable(16) %fraction_decimal) #12
  %7 = load i32, ptr %scale.addr, align 4
  %call7 = call noundef double @_ZN5arrow12_GLOBAL__N_124Decimal128RealConversion21ToRealPositiveNoSplitIdEET_RKNS_10Decimal128Ei(ptr noundef nonnull align 8 dereferenceable(16) %ref.tmp6, i32 noundef %7)
  store double %call7, ptr %fraction, align 8
  %8 = load double, ptr %whole, align 8
  %9 = load double, ptr %fraction, align 8
  %add = fadd double %8, %9
  store double %add, ptr %retval, align 8
  br label %return

return:                                           ; preds = %if.end, %if.then
  %10 = load double, ptr %retval, align 8
  ret double %10
}