; Function Attrs: mustprogress uwtable
define internal fastcc noundef double @_ZN5arrow12_GLOBAL__N_124Decimal128RealConversion14ToRealPositiveIdEET_RKNS_10Decimal128Ei(ptr noundef nonnull align 8 dereferenceable(16) %decimal, i32 noundef %scale) unnamed_addr #0 align 2 {
entry:
  %whole_decimal = alloca %"class.arrow::BasicDecimal128", align 8
  %fraction_decimal = alloca %"class.arrow::BasicDecimal128", align 8
  %cmp = icmp slt i32 %scale, 1
  %decimal.val.pre = load i64, ptr %decimal, align 8
  %.phi.trans.insert = getelementptr inbounds i8, ptr %decimal, i64 8
  %decimal.val7.pre = load i64, ptr %.phi.trans.insert, align 8
  br i1 %cmp, label %entry.if.then_crit_edge, label %lor.lhs.false

entry.if.then_crit_edge:                          ; preds = %entry
  %0 = sitofp i64 %decimal.val7.pre to double
  %1 = fmul double %0, 0x43F0000000000000
  br label %if.then

lor.lhs.false:                                    ; preds = %entry
  %cmp1 = icmp eq i64 %decimal.val7.pre, 0
  %cmp3 = icmp ult i64 %decimal.val.pre, 9007199254740992
  %or.cond = select i1 %cmp1, i1 %cmp3, i1 false
  br i1 %or.cond, label %if.then, label %if.end

if.then:                                          ; preds = %entry.if.then_crit_edge, %lor.lhs.false
  %decimal.val7 = phi double [ %1, %entry.if.then_crit_edge ], [ 0.000000e+00, %lor.lhs.false ]
  %sub.i = sub nsw i32 0, %scale
  %2 = add i32 %scale, 76
  %3 = icmp ult i32 %2, 153
  br i1 %3, label %if.then.i.i, label %if.else.i.i

if.then.i.i:                                      ; preds = %if.then
  %4 = sext i32 %sub.i to i64
  %5 = getelementptr double, ptr @_ZN5arrowL18kDoublePowersOfTenE, i64 %4
  %arrayidx.i.i = getelementptr i8, ptr %5, i64 608
  %6 = load double, ptr %arrayidx.i.i, align 8
  br label %_ZN5arrow12_GLOBAL__N_124Decimal128RealConversion21ToRealPositiveNoSplitIdEET_RKNS_10Decimal128Ei.exit

if.else.i.i:                                      ; preds = %if.then
  %conv.i.i = sitofp i32 %sub.i to double
  %__exp10.i.i = tail call double @__exp10(double %conv.i.i) #18
  br label %_ZN5arrow12_GLOBAL__N_124Decimal128RealConversion21ToRealPositiveNoSplitIdEET_RKNS_10Decimal128Ei.exit

_ZN5arrow12_GLOBAL__N_124Decimal128RealConversion21ToRealPositiveNoSplitIdEET_RKNS_10Decimal128Ei.exit: ; preds = %if.then.i.i, %if.else.i.i
  %retval.0.i.i = phi double [ %6, %if.then.i.i ], [ %__exp10.i.i, %if.else.i.i ]
  %conv3.i = uitofp i64 %decimal.val.pre to double
  %add.i = fadd double %decimal.val7, %conv3.i
  %mul.i = fmul double %add.i, %retval.0.i.i
  br label %return

if.end:                                           ; preds = %lor.lhs.false
  call void @llvm.memset.p0.i64(ptr noundef nonnull align 8 dereferenceable(16) %whole_decimal, i8 0, i64 16, i1 false)
  call void @llvm.memset.p0.i64(ptr noundef nonnull align 8 dereferenceable(16) %fraction_decimal, i8 0, i64 16, i1 false)
  call void @_ZNK5arrow15BasicDecimal12819GetWholeAndFractionEiPS0_S1_(ptr noundef nonnull align 8 dereferenceable(16) %decimal, i32 noundef %scale, ptr noundef nonnull %whole_decimal, ptr noundef nonnull %fraction_decimal)
  %ref.tmp.sroa.0.0.copyload = load i64, ptr %whole_decimal, align 8
  %ref.tmp.sroa.2.0.whole_decimal.sroa_idx = getelementptr inbounds i8, ptr %whole_decimal, i64 8
  %ref.tmp.sroa.2.0.copyload = load i64, ptr %ref.tmp.sroa.2.0.whole_decimal.sroa_idx, align 8
  %conv.i12 = sitofp i64 %ref.tmp.sroa.2.0.copyload to double
  %mul.i.i13 = fmul double %conv.i12, 0x43F0000000000000
  %conv3.i14 = uitofp i64 %ref.tmp.sroa.0.0.copyload to double
  %add.i15 = fadd double %mul.i.i13, %conv3.i14
  %ref.tmp6.sroa.0.0.copyload = load i64, ptr %fraction_decimal, align 8
  %ref.tmp6.sroa.2.0.fraction_decimal.sroa_idx = getelementptr inbounds i8, ptr %fraction_decimal, i64 8
  %ref.tmp6.sroa.2.0.copyload = load i64, ptr %ref.tmp6.sroa.2.0.fraction_decimal.sroa_idx, align 8
  %sub.i17 = sub nsw i32 0, %scale
  %7 = icmp ult i32 %scale, 77
  br i1 %7, label %if.then.i.i27, label %if.else.i.i18

if.then.i.i27:                                    ; preds = %if.end
  %8 = sext i32 %sub.i17 to i64
  %9 = getelementptr double, ptr @_ZN5arrowL18kDoublePowersOfTenE, i64 %8
  %arrayidx.i.i28 = getelementptr i8, ptr %9, i64 608
  %10 = load double, ptr %arrayidx.i.i28, align 8
  br label %_ZN5arrow12_GLOBAL__N_124Decimal128RealConversion21ToRealPositiveNoSplitIdEET_RKNS_10Decimal128Ei.exit29

if.else.i.i18:                                    ; preds = %if.end
  %conv.i.i19 = sitofp i32 %sub.i17 to double
  %__exp10.i.i20 = call double @__exp10(double %conv.i.i19) #18
  br label %_ZN5arrow12_GLOBAL__N_124Decimal128RealConversion21ToRealPositiveNoSplitIdEET_RKNS_10Decimal128Ei.exit29

_ZN5arrow12_GLOBAL__N_124Decimal128RealConversion21ToRealPositiveNoSplitIdEET_RKNS_10Decimal128Ei.exit29: ; preds = %if.then.i.i27, %if.else.i.i18
  %retval.0.i.i21 = phi double [ %10, %if.then.i.i27 ], [ %__exp10.i.i20, %if.else.i.i18 ]
  %conv.i22 = sitofp i64 %ref.tmp6.sroa.2.0.copyload to double
  %mul.i.i23 = fmul double %conv.i22, 0x43F0000000000000
  %conv3.i24 = uitofp i64 %ref.tmp6.sroa.0.0.copyload to double
  %add.i25 = fadd double %mul.i.i23, %conv3.i24
  %mul.i26 = fmul double %add.i25, %retval.0.i.i21
  %add = fadd double %add.i15, %mul.i26
  br label %return

return:                                           ; preds = %_ZN5arrow12_GLOBAL__N_124Decimal128RealConversion21ToRealPositiveNoSplitIdEET_RKNS_10Decimal128Ei.exit29, %_ZN5arrow12_GLOBAL__N_124Decimal128RealConversion21ToRealPositiveNoSplitIdEET_RKNS_10Decimal128Ei.exit
  %retval.0 = phi double [ %mul.i, %_ZN5arrow12_GLOBAL__N_124Decimal128RealConversion21ToRealPositiveNoSplitIdEET_RKNS_10Decimal128Ei.exit ], [ %add, %_ZN5arrow12_GLOBAL__N_124Decimal128RealConversion21ToRealPositiveNoSplitIdEET_RKNS_10Decimal128Ei.exit29 ]
  ret double %retval.0
}